; Function Attrs: nounwind uwtable
define dso_local void @llvm_value_set_address_abi_aligned(ptr noundef captures(none) initializes((4, 24)) %0, ptr noundef %1, ptr noundef %2) local_unnamed_addr #0 {
  %4 = tail call fastcc ptr @type_lowering(ptr noundef %2)
  %5 = tail call i32 @type_abi_alignment(ptr noundef %2) #3
  %6 = getelementptr inbounds nuw i8, ptr %0, i64 16
  store ptr %1, ptr %6, align 8
  %7 = getelementptr inbounds nuw i8, ptr %0, i64 4
  store i32 %5, ptr %7, align 4
  %8 = load i8, ptr %0, align 8
  %9 = and i8 %8, -32
  %10 = or disjoint i8 %9, 1
  store i8 %10, ptr %0, align 8
  %11 = tail call fastcc ptr @type_lowering(ptr noundef readonly %4)
  %12 = getelementptr inbounds nuw i8, ptr %0, i64 8
  store ptr %11, ptr %12, align 8
  ret void
}